; Function Attrs: nounwind uwtable
define range(i32 -1, 1) i32 @H5E_get_default_auto_func(ptr noundef writeonly captures(none) %0) local_unnamed_addr #0 {
  %2 = load i8, ptr @H5E_init_g, align 1, !tbaa !3, !range !7, !noundef !8
  %3 = trunc nuw i8 %2 to i1
  %4 = load i8, ptr @H5_libterm_g, align 1, !range !7
  %5 = trunc nuw i8 %4 to i1
  %6 = select i1 %3, i1 true, i1 %5
  br i1 %6, label %14, label %7, !prof !9

7:                                                ; preds = %1
  store i8 1, ptr @H5E_init_g, align 1, !tbaa !3
  %8 = tail call i32 @H5E__init_package()
  %9 = icmp slt i32 %8, 0
  br i1 %9, label %10, label %._crit_edge

._crit_edge:                                      ; preds = %7
  %.pre = load i8, ptr @H5E_init_g, align 1, !tbaa !3, !range !7
  %.pre4 = load i8, ptr @H5_libterm_g, align 1, !range !7
  %.pre5 = trunc nuw i8 %.pre to i1
  %.pre6 = trunc nuw i8 %.pre4 to i1
  br label %14

10:                                               ; preds = %7
  store i8 0, ptr @H5E_init_g, align 1, !tbaa !3
  %11 = load i64, ptr @H5E_FUNC_g, align 8, !tbaa !10
  %12 = load i64, ptr @H5E_CANTINIT_g, align 8, !tbaa !10
  %13 = tail call i32 (ptr, ptr, i32, i64, i64, ptr, ...) @H5E_printf_stack(ptr noundef nonnull @.str.1, ptr noundef nonnull @__func__.H5E_get_default_auto_func, i32 noundef 1480, i64 noundef %11, i64 noundef %12, ptr noundef nonnull @.str.2)
  br label %17

14:                                               ; preds = %._crit_edge, %1
  %.pre-phi7 = phi i1 [ %.pre6, %._crit_edge ], [ %5, %1 ]
  %.pre-phi = phi i1 [ %.pre5, %._crit_edge ], [ %3, %1 ]
  %15 = xor i1 %.pre-phi7, true
  %16 = select i1 %.pre-phi, i1 true, i1 %15
  br i1 %16, label %H5E__get_auto.exit, label %17, !prof !9

H5E__get_auto.exit:                               ; preds = %14
  %.sroa.3.0.copyload = load ptr, ptr getelementptr inbounds nuw (i8, ptr @H5E_stack_g, i64 2072), align 8, !tbaa !53
  store ptr %.sroa.3.0.copyload, ptr %0, align 8, !tbaa !53
  br label %17

17:                                               ; preds = %10, %H5E__get_auto.exit, %14
  %.0 = phi i32 [ -1, %10 ], [ 0, %H5E__get_auto.exit ], [ 0, %14 ]
  ret i32 %.0
}